; Function Attrs: mustprogress nofree norecurse nosync nounwind willreturn memory(argmem: read) uwtable
define internal signext range(i8 -1, 2) i8 @freetype_glyph_compare_cb(ptr noundef readonly captures(none) %0, ptr noundef readonly captures(none) %1) #2 {
  %3 = load i32, ptr %0, align 8, !tbaa !3
  %4 = load i32, ptr %1, align 8, !tbaa !3
  %.not = icmp eq i32 %3, %4
  br i1 %.not, label %8, label %5

5:                                                ; preds = %2
  %6 = icmp ugt i32 %3, %4
  %7 = select i1 %6, i8 1, i8 -1
  br label %16

8:                                                ; preds = %2
  %9 = getelementptr inbounds nuw i8, ptr %0, i64 4
  %10 = load i32, ptr %9, align 4, !tbaa !13
  %11 = getelementptr inbounds nuw i8, ptr %1, i64 4
  %12 = load i32, ptr %11, align 4, !tbaa !13
  %.not12 = icmp eq i32 %10, %12
  br i1 %.not12, label %16, label %13

13:                                               ; preds = %8
  %14 = icmp ugt i32 %10, %12
  %15 = select i1 %14, i8 1, i8 -1
  br label %16

16:                                               ; preds = %8, %13, %5
  %.0 = phi i8 [ %7, %5 ], [ %15, %13 ], [ 0, %8 ]
  ret i8 %.0
}